; Function Attrs: nounwind sspstrong uwtable
define internal fastcc range(i32 0, 2) i32 @inspect_linger(i64 noundef %0, i64 noundef %1) unnamed_addr #0 {
  %3 = inttoptr i64 %0 to ptr
  %4 = getelementptr inbounds nuw i8, ptr %3, i64 16
  %5 = load i64, ptr %4, align 8, !tbaa !15
  %6 = icmp eq i64 %5, 8
  br i1 %6, label %7, label %21

7:                                                ; preds = %2
  %8 = load i64, ptr %3, align 8, !tbaa !13, !noalias !104
  %9 = and i64 %8, 8192
  %.not.i.i = icmp eq i64 %9, 0
  %10 = getelementptr inbounds nuw i8, ptr %3, i64 24
  br i1 %.not.i.i, label %RSTRING_PTR.exit, label %11

11:                                               ; preds = %7
  %.sroa.2.0.copyload.i = load ptr, ptr %10, align 8
  br label %RSTRING_PTR.exit

RSTRING_PTR.exit:                                 ; preds = %7, %11
  %.sroa.2.0.i = phi ptr [ %.sroa.2.0.copyload.i, %11 ], [ %10, %7 ]
  %12 = load i64, ptr %.sroa.2.0.i, align 1
  %.sroa.0.0.extract.trunc = trunc i64 %12 to i32
  %.sroa.4.0.extract.shift = lshr i64 %12, 32
  %.sroa.4.0.extract.trunc = trunc nuw i64 %.sroa.4.0.extract.shift to i32
  switch i32 %.sroa.0.0.extract.trunc, label %17 [
    i32 0, label %13
    i32 1, label %15
  ]

13:                                               ; preds = %RSTRING_PTR.exit
  %14 = tail call i64 @rb_str_cat(i64 noundef %1, ptr noundef nonnull @.str.29, i64 noundef 4) #6
  br label %19

15:                                               ; preds = %RSTRING_PTR.exit
  %16 = tail call i64 @rb_str_cat(i64 noundef %1, ptr noundef nonnull @.str.30, i64 noundef 3) #6
  br label %19

17:                                               ; preds = %RSTRING_PTR.exit
  %18 = tail call i64 (i64, ptr, ...) @rb_str_catf(i64 noundef %1, ptr noundef nonnull @.str.31, i32 noundef %.sroa.0.0.extract.trunc) #6
  br label %19

19:                                               ; preds = %17, %15, %13
  %20 = tail call i64 (i64, ptr, ...) @rb_str_catf(i64 noundef %1, ptr noundef nonnull @.str.32, i32 noundef %.sroa.4.0.extract.trunc) #6
  br label %21

21:                                               ; preds = %2, %19
  %.0 = phi i32 [ 1, %19 ], [ 0, %2 ]
  ret i32 %.0
}